; Function Attrs: mustprogress uwtable
define void @_ZNK7rocksdb11WalDeletion8EncodeToEPNSt7__cxx1112basic_stringIcSt11char_traitsIcESaIcEEE(ptr noundef nonnull readonly align 8 captures(none) dereferenceable(8) %0, ptr noundef %1) local_unnamed_addr #0 align 2 personality ptr @__gxx_personality_v0 {
  %3 = alloca [10 x i8], align 1
  %4 = load i64, ptr %0, align 8, !tbaa !68
  call void @llvm.lifetime.start.p0(i64 10, ptr nonnull %3) #16
  %5 = icmp ugt i64 %4, 127
  br i1 %5, label %.lr.ph.i.i, label %_ZN7rocksdb14EncodeVarint64EPcm.exit.i

.lr.ph.i.i:                                       ; preds = %2, %.lr.ph.i.i
  %.09.i.i = phi ptr [ %8, %.lr.ph.i.i ], [ %3, %2 ]
  %.078.i.i = phi i64 [ %9, %.lr.ph.i.i ], [ %4, %2 ]
  %6 = trunc i64 %.078.i.i to i8
  %7 = or i8 %6, -128
  %8 = getelementptr inbounds nuw i8, ptr %.09.i.i, i64 1
  store i8 %7, ptr %.09.i.i, align 1, !tbaa !10
  %9 = lshr i64 %.078.i.i, 7
  %10 = icmp ugt i64 %.078.i.i, 16383
  br i1 %10, label %.lr.ph.i.i, label %_ZN7rocksdb14EncodeVarint64EPcm.exit.i, !llvm.loop !11

_ZN7rocksdb14EncodeVarint64EPcm.exit.i:           ; preds = %.lr.ph.i.i, %2
  %.07.lcssa.i.i = phi i64 [ %4, %2 ], [ %9, %.lr.ph.i.i ]
  %.0.lcssa.i.i = phi ptr [ %3, %2 ], [ %8, %.lr.ph.i.i ]
  %11 = trunc nuw nsw i64 %.07.lcssa.i.i to i8
  %12 = getelementptr inbounds nuw i8, ptr %.0.lcssa.i.i, i64 1
  store i8 %11, ptr %.0.lcssa.i.i, align 1, !tbaa !10
  %13 = ptrtoint ptr %12 to i64
  %14 = ptrtoint ptr %3 to i64
  %15 = sub i64 %13, %14
  %16 = getelementptr inbounds nuw i8, ptr %1, i64 8
  %17 = load i64, ptr %16, align 8, !tbaa !13
  %18 = sub i64 4611686018427387903, %17
  %19 = icmp ult i64 %18, %15
  br i1 %19, label %20, label %_ZN7rocksdb11PutVarint64EPNSt7__cxx1112basic_stringIcSt11char_traitsIcESaIcEEEm.exit

20:                                               ; preds = %_ZN7rocksdb14EncodeVarint64EPcm.exit.i
  call void @_ZSt20__throw_length_errorPKc(ptr noundef nonnull @.str.17) #17
  unreachable

_ZN7rocksdb11PutVarint64EPNSt7__cxx1112basic_stringIcSt11char_traitsIcESaIcEEEm.exit: ; preds = %_ZN7rocksdb14EncodeVarint64EPcm.exit.i
  %21 = call noundef nonnull align 8 dereferenceable(32) ptr @_ZNSt7__cxx1112basic_stringIcSt11char_traitsIcESaIcEE9_M_appendEPKcm(ptr noundef nonnull align 8 dereferenceable(32) %1, ptr noundef nonnull %3, i64 noundef %15)
  call void @llvm.lifetime.end.p0(i64 10, ptr nonnull %3) #16
  ret void
}